; Function Attrs: nofree nosync nounwind memory(readwrite, inaccessiblemem: none) uwtable
define i32 @Hop_ObjFanoutCount_rec(ptr noundef %0, ptr noundef %1) local_unnamed_addr #2 {
  %3 = getelementptr i8, ptr %0, i64 32
  %.val = load i32, ptr %3, align 8
  %4 = and i32 %.val, 22
  %or.cond = icmp eq i32 %4, 4
  br i1 %or.cond, label %7, label %common.ret

common.ret:                                       ; preds = %2
  %5 = icmp eq ptr %0, %1
  %6 = zext i1 %5 to i32
  br label %common.ret14

common.ret14:                                     ; preds = %7, %common.ret
  %common.ret14.op = phi i32 [ %6, %common.ret ], [ %18, %7 ]
  ret i32 %common.ret14.op

7:                                                ; preds = %2
  %8 = getelementptr i8, ptr %0, i64 16
  %.val12 = load ptr, ptr %8, align 8, !tbaa !3
  %9 = ptrtoint ptr %.val12 to i64
  %10 = and i64 %9, -2
  %11 = inttoptr i64 %10 to ptr
  %12 = tail call i32 @Hop_ObjFanoutCount_rec(ptr noundef %11, ptr noundef %1)
  %13 = getelementptr i8, ptr %0, i64 24
  %.val13 = load ptr, ptr %13, align 8, !tbaa !10
  %14 = ptrtoint ptr %.val13 to i64
  %15 = and i64 %14, -2
  %16 = inttoptr i64 %15 to ptr
  %17 = tail call i32 @Hop_ObjFanoutCount_rec(ptr noundef %16, ptr noundef %1)
  %18 = add nsw i32 %17, %12
  %19 = load i32, ptr %3, align 8
  %20 = or i32 %19, 16
  store i32 %20, ptr %3, align 8
  br label %common.ret14
}